target datalayout = "e-m:e-p270:32:32-p271:32:32-p272:64:64-i64:64-i128:128-f80:128-n8:16:32:64-S128"
target triple = "x86_64-pc-linux-gnu"

%struct.Aig_VSig_t_ = type { i32, [12 x i32] }

@.str.10 = private unnamed_addr constant [2 x i8] c"\0A\00", align 1
@.str.11 = private unnamed_addr constant [7 x i8] c"%2d : \00", align 1
@.str.12 = private unnamed_addr constant [6 x i8] c"%5d  \00", align 1
@.str.13 = private unnamed_addr constant [2 x i8] c"(\00", align 1
@.str.14 = private unnamed_addr constant [5 x i8] c"%4d \00", align 1
@.str.15 = private unnamed_addr constant [4 x i8] c")  \00", align 1

; Function Attrs: nounwind uwtable
define void @Aig_RManPrintSigs(ptr noundef %0, i32 noundef %1) #0 {
  %3 = alloca ptr, align 8
  %4 = alloca i32, align 4
  %5 = alloca i32, align 4
  %6 = alloca i32, align 4
  %7 = alloca i32, align 4
  store ptr %0, ptr %3, align 8, !tbaa !54
  store i32 %1, ptr %4, align 4, !tbaa !25
  call void @llvm.lifetime.start.p0(i64 4, ptr %5) #10
  call void @llvm.lifetime.start.p0(i64 4, ptr %6) #10
  call void @llvm.lifetime.start.p0(i64 4, ptr %7) #10
  store i32 0, ptr %5, align 4, !tbaa !25
  br label %8

8:                                                ; preds = %58, %2
  %9 = load i32, ptr %5, align 4, !tbaa !25
  %10 = load i32, ptr %4, align 4, !tbaa !25
  %11 = icmp slt i32 %9, %10
  br i1 %11, label %12, label %61

12:                                               ; preds = %8
  %13 = load i32, ptr %5, align 4, !tbaa !25
  %14 = call i32 (ptr, ...) @printf(ptr noundef @.str.11, i32 noundef %13)
  store i32 0, ptr %7, align 4, !tbaa !25
  br label %15

15:                                               ; preds = %53, %12
  %16 = load i32, ptr %7, align 4, !tbaa !25
  %17 = icmp slt i32 %16, 2
  br i1 %17, label %18, label %56

18:                                               ; preds = %15
  %19 = load ptr, ptr %3, align 8, !tbaa !54
  %20 = load i32, ptr %5, align 4, !tbaa !25
  %21 = mul nsw i32 2, %20
  %22 = load i32, ptr %7, align 4, !tbaa !25
  %23 = add nsw i32 %21, %22
  %24 = sext i32 %23 to i64
  %25 = getelementptr inbounds %struct.Aig_VSig_t_, ptr %19, i64 %24
  %26 = getelementptr inbounds nuw %struct.Aig_VSig_t_, ptr %25, i32 0, i32 0
  %27 = load i32, ptr %26, align 4, !tbaa !56
  %28 = call i32 (ptr, ...) @printf(ptr noundef @.str.12, i32 noundef %27)
  %29 = call i32 (ptr, ...) @printf(ptr noundef @.str.13)
  store i32 0, ptr %6, align 4, !tbaa !25
  br label %30

30:                                               ; preds = %48, %18
  %31 = load i32, ptr %6, align 4, !tbaa !25
  %32 = load i32, ptr %4, align 4, !tbaa !25
  %33 = icmp slt i32 %31, %32
  br i1 %33, label %34, label %51

34:                                               ; preds = %30
  %35 = load ptr, ptr %3, align 8, !tbaa !54
  %36 = load i32, ptr %5, align 4, !tbaa !25
  %37 = mul nsw i32 2, %36
  %38 = load i32, ptr %7, align 4, !tbaa !25
  %39 = add nsw i32 %37, %38
  %40 = sext i32 %39 to i64
  %41 = getelementptr inbounds %struct.Aig_VSig_t_, ptr %35, i64 %40
  %42 = getelementptr inbounds nuw %struct.Aig_VSig_t_, ptr %41, i32 0, i32 1
  %43 = load i32, ptr %6, align 4, !tbaa !25
  %44 = sext i32 %43 to i64
  %45 = getelementptr inbounds [12 x i32], ptr %42, i64 0, i64 %44
  %46 = load i32, ptr %45, align 4, !tbaa !25
  %47 = call i32 (ptr, ...) @printf(ptr noundef @.str.14, i32 noundef %46)
  br label %48

48:                                               ; preds = %34
  %49 = load i32, ptr %6, align 4, !tbaa !25
  %50 = add nsw i32 %49, 1
  store i32 %50, ptr %6, align 4, !tbaa !25
  br label %30, !llvm.loop !58

51:                                               ; preds = %30
  %52 = call i32 (ptr, ...) @printf(ptr noundef @.str.15)
  br label %53

53:                                               ; preds = %51
  %54 = load i32, ptr %7, align 4, !tbaa !25
  %55 = add nsw i32 %54, 1
  store i32 %55, ptr %7, align 4, !tbaa !25
  br label %15, !llvm.loop !59

56:                                               ; preds = %15
  %57 = call i32 (ptr, ...) @printf(ptr noundef @.str.10)
  br label %58

58:                                               ; preds = %56
  %59 = load i32, ptr %5, align 4, !tbaa !25
  %60 = add nsw i32 %59, 1
  store i32 %60, ptr %5, align 4, !tbaa !25
  br label %8, !llvm.loop !60

61:                                               ; preds = %8
  call void @llvm.lifetime.end.p0(i64 4, ptr %7) #10
  call void @llvm.lifetime.end.p0(i64 4, ptr %6) #10
  call void @llvm.lifetime.end.p0(i64 4, ptr %5) #10
  ret void
}