; Function Attrs: nofree nounwind uwtable
define void @Aig_RManPrintSigs(ptr noundef readonly captures(none) %0, i32 noundef %1) local_unnamed_addr #9 {
  %3 = icmp sgt i32 %1, 0
  br i1 %3, label %.split.us.us.preheader, label %._crit_edge

.split.us.us.preheader:                           ; preds = %2
  %wide.trip.count31 = zext nneg i32 %1 to i64
  br label %.split.us.us

.split.us.us:                                     ; preds = %.split.us.us.preheader, %.split22.us.us
  %indvars.iv28 = phi i64 [ 0, %.split.us.us.preheader ], [ %indvars.iv.next29, %.split22.us.us ]
  %4 = trunc nuw nsw i64 %indvars.iv28 to i32
  %5 = tail call i32 (ptr, ...) @printf(ptr noundef nonnull dereferenceable(1) @.str.11, i32 noundef %4)
  %.idx = mul nuw nsw i64 %indvars.iv28, 104
  %invariant.gep = getelementptr inbounds nuw i8, ptr %0, i64 %.idx
  br label %.lr.ph.us.us

.lr.ph.us.us:                                     ; preds = %._crit_edge.us.us, %.split.us.us
  %6 = phi i1 [ false, %._crit_edge.us.us ], [ true, %.split.us.us ]
  %indvars.iv25 = phi i64 [ 1, %._crit_edge.us.us ], [ 0, %.split.us.us ]
  %gep = getelementptr inbounds nuw %struct.Aig_VSig_t_, ptr %invariant.gep, i64 %indvars.iv25
  %7 = load i32, ptr %gep, align 4, !tbaa !47
  %8 = tail call i32 (ptr, ...) @printf(ptr noundef nonnull dereferenceable(1) @.str.12, i32 noundef %7)
  %putchar18.us.us = tail call i32 @putchar(i32 40)
  %9 = getelementptr inbounds nuw i8, ptr %gep, i64 4
  br label %10

10:                                               ; preds = %10, %.lr.ph.us.us
  %indvars.iv = phi i64 [ %indvars.iv.next, %10 ], [ 0, %.lr.ph.us.us ]
  %11 = getelementptr inbounds nuw [12 x i32], ptr %9, i64 0, i64 %indvars.iv
  %12 = load i32, ptr %11, align 4, !tbaa !24
  %13 = tail call i32 (ptr, ...) @printf(ptr noundef nonnull dereferenceable(1) @.str.14, i32 noundef %12)
  %indvars.iv.next = add nuw nsw i64 %indvars.iv, 1
  %exitcond.not = icmp eq i64 %indvars.iv.next, %wide.trip.count31
  br i1 %exitcond.not, label %._crit_edge.us.us, label %10, !llvm.loop !49

._crit_edge.us.us:                                ; preds = %10
  %14 = tail call i32 (ptr, ...) @printf(ptr noundef nonnull dereferenceable(1) @.str.15)
  br i1 %6, label %.lr.ph.us.us, label %.split22.us.us, !llvm.loop !50

.split22.us.us:                                   ; preds = %._crit_edge.us.us
  %putchar.us = tail call i32 @putchar(i32 10)
  %indvars.iv.next29 = add nuw nsw i64 %indvars.iv28, 1
  %exitcond32.not = icmp eq i64 %indvars.iv.next29, %wide.trip.count31
  br i1 %exitcond32.not, label %._crit_edge, label %.split.us.us, !llvm.loop !51

._crit_edge:                                      ; preds = %.split22.us.us, %2
  ret void
}